target datalayout = "e-m:e-p270:32:32-p271:32:32-p272:64:64-i64:64-i128:128-f80:128-n8:16:32:64-S128"
target triple = "x86_64-pc-linux-gnu"

%"struct.absl::base_internal::LowLevelAlloc::Arena" = type <{ %"class.absl::base_internal::SpinLock", [4 x i8], %"struct.absl::base_internal::(anonymous namespace)::AllocList", i32, i32, i64, i64, i64, i32, [4 x i8] }>
%"class.absl::base_internal::SpinLock" = type { %"struct.std::atomic" }
%"struct.std::atomic" = type { %"struct.std::__atomic_base" }
%"struct.std::__atomic_base" = type { i32 }
%"struct.absl::base_internal::(anonymous namespace)::AllocList" = type { %"struct.absl::base_internal::(anonymous namespace)::AllocList::Header", i32, [30 x ptr] }
%"struct.absl::base_internal::(anonymous namespace)::AllocList::Header" = type { i64, i64, ptr, ptr }

; Function Attrs: inlinehint mustprogress nounwind uwtable
define internal noundef i64 @_ZN4absl13base_internalL5MagicEmPNS0_12_GLOBAL__N_19AllocList6HeaderE(i64 noundef %0, ptr noundef %1) #3 {
  %3 = alloca i64, align 8
  %4 = alloca ptr, align 8
  store i64 %0, ptr %3, align 8, !tbaa !33
  store ptr %1, ptr %4, align 8, !tbaa !36
  %5 = load i64, ptr %3, align 8, !tbaa !33
  %6 = load ptr, ptr %4, align 8, !tbaa !36
  %7 = ptrtoint ptr %6 to i64
  %8 = xor i64 %5, %7
  ret i64 %8
}

; Function Attrs: mustprogress nounwind uwtable
define internal noundef i64 @_ZN4absl13base_internal12_GLOBAL__N_118RoundedUpBlockSizeEv() #2 {
  %1 = alloca i64, align 8
  call void @llvm.lifetime.start.p0(i64 8, ptr %1) #14
  store i64 16, ptr %1, align 8, !tbaa !33
  br label %2

2:                                                ; preds = %5, %0
  %3 = load i64, ptr %1, align 8, !tbaa !33
  %4 = icmp ult i64 %3, 32
  br i1 %4, label %5, label %9

5:                                                ; preds = %2
  %6 = load i64, ptr %1, align 8, !tbaa !33
  %7 = load i64, ptr %1, align 8, !tbaa !33
  %8 = add i64 %7, %6
  store i64 %8, ptr %1, align 8, !tbaa !33
  br label %2, !llvm.loop !34

9:                                                ; preds = %2
  %10 = load i64, ptr %1, align 8, !tbaa !33
  call void @llvm.lifetime.end.p0(i64 8, ptr %1) #14
  ret i64 %10
}

; Function Attrs: mustprogress nounwind uwtable
define internal noundef i64 @_ZN4absl13base_internal12_GLOBAL__N_111GetPageSizeEv() #2 {
  %1 = call i64 @sysconf(i32 noundef 30) #14
  ret i64 %1
}

; Function Attrs: mustprogress uwtable
define dso_local void @_ZN4absl13base_internal13LowLevelAlloc5ArenaC2Ej(ptr noundef nonnull align 8 dereferenceable(324) %0, i32 noundef %1) unnamed_addr #0 align 2 {
  %3 = alloca ptr, align 8
  %4 = alloca i32, align 4
  store ptr %0, ptr %3, align 8, !tbaa !14
  store i32 %1, ptr %4, align 4, !tbaa !12
  %5 = load ptr, ptr %3, align 8
  %6 = getelementptr inbounds nuw %"struct.absl::base_internal::LowLevelAlloc::Arena", ptr %5, i32 0, i32 0
  call void @_ZN4absl13base_internal8SpinLockC1ENS0_14SchedulingModeE(ptr noundef nonnull align 4 dereferenceable(4) %6, i32 noundef 0)
  %7 = getelementptr inbounds nuw %"struct.absl::base_internal::LowLevelAlloc::Arena", ptr %5, i32 0, i32 3
  store i32 0, ptr %7, align 8, !tbaa !16
  %8 = getelementptr inbounds nuw %"struct.absl::base_internal::LowLevelAlloc::Arena", ptr %5, i32 0, i32 4
  %9 = load i32, ptr %4, align 4, !tbaa !12
  store i32 %9, ptr %8, align 4, !tbaa !24
  %10 = getelementptr inbounds nuw %"struct.absl::base_internal::LowLevelAlloc::Arena", ptr %5, i32 0, i32 5
  %11 = call noundef i64 @_ZN4absl13base_internal12_GLOBAL__N_111GetPageSizeEv()
  store i64 %11, ptr %10, align 8, !tbaa !25
  %12 = getelementptr inbounds nuw %"struct.absl::base_internal::LowLevelAlloc::Arena", ptr %5, i32 0, i32 6
  %13 = call noundef i64 @_ZN4absl13base_internal12_GLOBAL__N_118RoundedUpBlockSizeEv()
  store i64 %13, ptr %12, align 8, !tbaa !26
  %14 = getelementptr inbounds nuw %"struct.absl::base_internal::LowLevelAlloc::Arena", ptr %5, i32 0, i32 7
  %15 = getelementptr inbounds nuw %"struct.absl::base_internal::LowLevelAlloc::Arena", ptr %5, i32 0, i32 6
  %16 = load i64, ptr %15, align 8, !tbaa !26
  %17 = mul i64 2, %16
  store i64 %17, ptr %14, align 8, !tbaa !27
  %18 = getelementptr inbounds nuw %"struct.absl::base_internal::LowLevelAlloc::Arena", ptr %5, i32 0, i32 8
  store i32 0, ptr %18, align 8, !tbaa !28
  %19 = getelementptr inbounds nuw %"struct.absl::base_internal::LowLevelAlloc::Arena", ptr %5, i32 0, i32 2
  %20 = getelementptr inbounds nuw %"struct.absl::base_internal::(anonymous namespace)::AllocList", ptr %19, i32 0, i32 0
  %21 = getelementptr inbounds nuw %"struct.absl::base_internal::(anonymous namespace)::AllocList::Header", ptr %20, i32 0, i32 0
  store i64 0, ptr %21, align 8, !tbaa !29
  %22 = getelementptr inbounds nuw %"struct.absl::base_internal::LowLevelAlloc::Arena", ptr %5, i32 0, i32 2
  %23 = getelementptr inbounds nuw %"struct.absl::base_internal::(anonymous namespace)::AllocList", ptr %22, i32 0, i32 0
  %24 = call noundef i64 @_ZN4absl13base_internalL5MagicEmPNS0_12_GLOBAL__N_19AllocList6HeaderE(i64 noundef -1283669654, ptr noundef %23)
  %25 = getelementptr inbounds nuw %"struct.absl::base_internal::LowLevelAlloc::Arena", ptr %5, i32 0, i32 2
  %26 = getelementptr inbounds nuw %"struct.absl::base_internal::(anonymous namespace)::AllocList", ptr %25, i32 0, i32 0
  %27 = getelementptr inbounds nuw %"struct.absl::base_internal::(anonymous namespace)::AllocList::Header", ptr %26, i32 0, i32 1
  store i64 %24, ptr %27, align 8, !tbaa !30
  %28 = getelementptr inbounds nuw %"struct.absl::base_internal::LowLevelAlloc::Arena", ptr %5, i32 0, i32 2
  %29 = getelementptr inbounds nuw %"struct.absl::base_internal::(anonymous namespace)::AllocList", ptr %28, i32 0, i32 0
  %30 = getelementptr inbounds nuw %"struct.absl::base_internal::(anonymous namespace)::AllocList::Header", ptr %29, i32 0, i32 2
  store ptr %5, ptr %30, align 8, !tbaa !31
  %31 = getelementptr inbounds nuw %"struct.absl::base_internal::LowLevelAlloc::Arena", ptr %5, i32 0, i32 2
  %32 = getelementptr inbounds nuw %"struct.absl::base_internal::(anonymous namespace)::AllocList", ptr %31, i32 0, i32 1
  store i32 0, ptr %32, align 8, !tbaa !32
  %33 = getelementptr inbounds nuw %"struct.absl::base_internal::LowLevelAlloc::Arena", ptr %5, i32 0, i32 2
  %34 = getelementptr inbounds nuw %"struct.absl::base_internal::(anonymous namespace)::AllocList", ptr %33, i32 0, i32 2
  %35 = getelementptr inbounds [30 x ptr], ptr %34, i64 0, i64 0
  call void @llvm.memset.p0.i64(ptr align 8 %35, i8 0, i64 240, i1 false)
  ret void
}