; Function Attrs: mustprogress uwtable
define dso_local void @_ZN4absl13base_internal13LowLevelAlloc5ArenaC2Ej(ptr noundef nonnull align 8 dereferenceable(324) %0, i32 noundef %1) unnamed_addr #0 align 2 {
  tail call void @_ZN4absl13base_internal8SpinLockC1ENS0_14SchedulingModeE(ptr noundef nonnull align 4 dereferenceable(4) %0, i32 noundef 0)
  %3 = getelementptr inbounds nuw i8, ptr %0, i64 288
  store i32 0, ptr %3, align 8, !tbaa !5
  %4 = getelementptr inbounds nuw i8, ptr %0, i64 292
  store i32 %1, ptr %4, align 4, !tbaa !18
  %5 = getelementptr inbounds nuw i8, ptr %0, i64 296
  %6 = tail call noundef i64 @sysconf(i32 noundef 30) #12
  store i64 %6, ptr %5, align 8, !tbaa !19
  %7 = getelementptr inbounds nuw i8, ptr %0, i64 304
  store i64 32, ptr %7, align 8, !tbaa !20
  %8 = getelementptr inbounds nuw i8, ptr %0, i64 312
  store i64 64, ptr %8, align 8, !tbaa !21
  %9 = getelementptr inbounds nuw i8, ptr %0, i64 320
  store i32 0, ptr %9, align 8, !tbaa !22
  %10 = getelementptr inbounds nuw i8, ptr %0, i64 8
  store i64 0, ptr %10, align 8, !tbaa !23
  %11 = ptrtoint ptr %10 to i64
  %12 = xor i64 %11, -1283669654
  %13 = getelementptr inbounds nuw i8, ptr %0, i64 16
  store i64 %12, ptr %13, align 8, !tbaa !24
  %14 = getelementptr inbounds nuw i8, ptr %0, i64 24
  store ptr %0, ptr %14, align 8, !tbaa !25
  %15 = getelementptr inbounds nuw i8, ptr %0, i64 40
  store i32 0, ptr %15, align 8, !tbaa !26
  %16 = getelementptr inbounds nuw i8, ptr %0, i64 48
  tail call void @llvm.memset.p0.i64(ptr noundef nonnull align 8 dereferenceable(240) %16, i8 0, i64 240, i1 false)
  ret void
}